000000	e000		LDI	R16,0X00
000001	bb07		OUT	DDRB,R16
000002	ef0f		LDI	R16,255
000003	bb04		OUT	DDRC,R16
000004	b346		IN	R20,PINB
000005	9546		LSR	R20
000006	f020		BRCS	ODD
000007	e010		LDI	R17,0X00
000008	bb15		OUT	PORTC,R17
000009	940c000d		JMP	LAST
00000b	ef1f	ODD	LDI	R17,255
00000c	bb15		OUT	PORTC,R17
00000d	940c000d	LAST	JMP	LAST
000000	e000		LDI	R16,0X00
000001	bb07		OUT	DDRB,R16
000002	ef0f		LDI	R16,255
000003	bb04		OUT	DDRC,R16
000004	b346		IN	R20,PINB
000005	9546		LSR	R20
000006	001e		BRCS	ODD
000007	e010		LDI	R17,0X00
000008	bb15		OUT	PORTC,R17
000009	0001		JMP	LAST
00000b	ef1f	ODD	LDI	R17,255
00000c	bb15		OUT	PORTC,R17
00000d	0001	LAST	JMP	LAST
000000	e000		LDI	R16,0X00
000001	bb07		OUT	DDRB,R16
000002	ef0f		LDI	R16,255
000003	bb04		OUT	DDRC,R16
000004	b346		IN	R20,PINB
000005	9546		LSR	R20
000006	001e		BRCS	ODD
000007	e010		LDI	R17,0X00
000008	bb15		OUT	PORTC,R17
000009	0001		JMP	LAST
00000b	ef1f	ODD	LDI	R17,255
00000c	bb15		OUT	PORTC,R17
00000d	0001	LAST	JMP	LAST
000000	0000		LDI	R16,0X00
000001	0000		OUT	DDRB,R16
000002	0000		LDI	R16,255
000003	0000		OUT	DDRC,R16
000004	0000		IN	R20,PINB
000005	0000		LSR	R20
000006	0000		BRCS	ODD
000007	0000		LDI	R17,0X00
000008	0000		OUT	PORTC,R17
000009	0000		JMP	LAST
00000b	0000	ODD	LDI	R17,255
00000c	0000		OUT	PORTC,R17
00000d	0000	LAST	JMP	LAST
000000	0000		LDI	R16,0X00
000001	0000		OUT	DDRB,R16
000002	0000		LDI	R16,255
000003	0000		OUT	DDRC,R16
000004	0000		IN	R20,PINB
000005	0000		LSR	R20
000006	0000		BRCS	ODD
000007	0000		LDI	R17,0X00
000008	0000		OUT	PORTC,R17
000009	0000		JMP	LAST
00000b	0000	ODD	LDI	R17,255
00000c	0000		OUT	PORTC,R17
00000d	0000	LAST	JMP	LAST
000000	0000		LDI	R16,0X00
000001	0000		OUT	DDRB,R16
000002	0000		LDI	R16,255
000003	0000		OUT	DDRC,R16
000004	0000		IN	R20,PINB
000005	0000		LSR	R20
000006	0000		BRCS	ODD
000007	0000		LDI	R17,0X00
000008	0000		OUT	PORTC,R17
000009	0000		JMP	LAST
00000b	0000	ODD	LDI	R17,255
00000c	0000		OUT	PORTC,R17
00000d	0000	LAST	JMP	LAST
000000	0000		LDI	R16,0X00
000001	0000		OUT	DDRB,R16
000002	0000		LDI	R16,255
000003	0000		OUT	DDRC,R16
000004	0000		IN	R20,PINB
000005	0000		LSR	R20
000006	0000		BRCS	ODD
000007	0000		LDI	R17,0X00
000008	0000		OUT	PORTC,R17
000009	0000		JMP	LAST
00000b	0000	ODD	LDI	R17,255
00000c	0000		OUT	PORTC,R17
00000d	0000	LAST	JMP	LAST
000000	0000		LDI	R16,0X00
000001	0000		OUT	DDRB,R16
000002	0000		LDI	R16,255
000003	0000		OUT	DDRC,R16
000004	0000		IN	R20,PINB
000005	0000		LSR	R20
000006	0000		BRCS	ODD
000007	0000		LDI	R17,0X00
000008	0000		OUT	PORTC,R17
000009	0000		JMP	LAST
00000b	0000	ODD	LDI	R17,255
00000c	0000		OUT	PORTC,R17
00000d	0000	LAST	JMP	LAST
000000	0000		LDI	R16,0X00
000001	0000		OUT	DDRB,R16
000002	0000		LDI	R16,255
000003	0000		OUT	DDRC,R16
000004	0000		IN	R20,PINB
000005	0000		LSR	R20
000006	0000		BRCS	ODD
000007	0000		LDI	R17,0X00
000008	0000		OUT	PORTC,R17
000009	0000		JMP	LAST
00000b	0000	ODD	LDI	R17,255
00000c	0000		OUT	PORTC,R17
00000d	0000	LAST	JMP	LAST
000000	0000		LDI	R16,0X00
000001	0000		OUT	DDRB,R16
000002	0000		LDI	R16,255
000003	0000		OUT	DDRC,R16
000004	0000		IN	R20,PINB
000005	0000		LSR	R20
000006	0000		BRCS	ODD
000007	0000		LDI	R17,0X00
000008	0000		OUT	PORTC,R17
000009	0000		JMP	LAST
00000b	0000	ODD	LDI	R17,255
00000c	0000		OUT	PORTC,R17
00000d	0000	LAST	JMP	LAST
000000	0000		LDI	R16,0X00
000001	0000		OUT	DDRB,R16
000002	0000		LDI	R16,255
000003	0000		OUT	DDRC,R16
000004	0000		IN	R20,PINB
000005	0000		LSR	R20
000006	0000		BRCS	ODD
000007	0000		LDI	R17,0X00
000008	0000		OUT	PORTC,R17
000009	0000		JMP	LAST
00000b	0000	ODD	LDI	R17,255
00000c	0000		OUT	PORTC,R17
00000d	0000	LAST	JMP	LAST
000000	0000		LDI	R16,0X00
000001	0000		OUT	DDRB,R16
000002	0000		LDI	R16,255
000003	0000		OUT	DDRC,R16
000004	0000		IN	R20,PINB
000005	0000		LSR	R20
000006	0000		BRCS	ODD
000007	0000		LDI	R17,0X00
000008	0000		OUT	PORTC,R17
000009	0000		JMP	LAST
00000b	0000	ODD	LDI	R17,255
00000c	0000		OUT	PORTC,R17
00000d	0000	LAST	JMP	LAST
